MPASM  5.48                          MAIN.ASM   2-3-2013  4:26:59         PAGE  1


LOC  OBJECT CODE     LINE SOURCE TEXT
  VALUE

                      00001     list p=16f877
                      00002     #include <p16f877.inc>
                      00001         LIST
                      00002 
                      00003 ;==========================================================================
                      00004 ;  MPASM PIC16F877 processor include
                      00005 ; 
                      00006 ;  (c) Copyright 1999-2012 Microchip Technology, All rights reserved
                      00007 ;==========================================================================
                      00008 
                      00540         LIST
2007   3F72           00003     __CONFIG _CP_OFF & _WDT_OFF & _BODEN_ON & _PWRTE_ON & _HS_OSC & _WRT_ENABLE_ON & _CPD_OFF & _LVP_OFF
                      00004 
                      00005 
                      00006 ; Declare variables
                      00007     cblock 0x1000
  00001000            00008         lcd_d1 ;Used for LCD_DELAY macro
  00001001            00009         lcd_d2 ;Used for DELAY_5MS subroutine
  00001002            00010         com ;For writing instruction to LCD
  00001003            00011         table_counter ;Used for displaying characters on LCD
  00001004            00012         dat ;For writing data to LCD
  00001005            00013         COUNTH ;Used for DELAY_500MS subroutine
  00001006            00014         COUNTM ;(see above)
  00001007            00015         COUNTL ;(see above)
  00001008            00016         A_PRESSED
  00001009            00017         B_PRESSED
  0000100A            00018         comp_temp
  0000100B            00019         w_temp
                      00020     endc
                      00021 
                      00022 ; Declare constants for pin assignment (LCD on PORTD, see Lab 2 on Portal)
                      00023     #define     LCD_RS  PORTD,2
                      00024         #define LCD_E   PORTD,3
                      00025     #define KEYPAD_P PORTB,1
                      00026 
                      00027     ORG 0x0000
0000   2???           00028     goto MAIN_INIT
                      00029 
                      00030 ;***************************
                      00031 ;   Delay: 160ms
                      00032 ;***************************
                      00033 LCD_DELAY macro
                      00034     movlw 0xff
                      00035     movwf lcd_d1
                      00036     decfsz lcd_d1, f ; Decrement lcd_d1, if lcd_d1 = 0, then discard next instruction
                      00037     goto $-1
                      00038     endm
                      00039 
                      00040 ;***************************
                      00041 ;   Display Macro
                      00042 ;***************************
                      00043 DISPLAY macro MESSAGE
                      00044     local D_LOOP
MPASM  5.48                          MAIN.ASM   2-3-2013  4:26:59         PAGE  2


LOC  OBJECT CODE     LINE SOURCE TEXT
  VALUE

                      00045     local D_END
                      00046     clrf table_counter
                      00047     clrw
                      00048 D_LOOP
                      00049     movf table_counter, W
                      00050     call MESSAGE ;??
                      00051     xorlw B'00000000' ;used to change STATUS<Z>, if result is 0, then Z=1
                      00052     btfsc STATUS, Z ; if STATUS<Z> is 1, execute next inst. Else, discard next inst.
                      00053         goto D_END
                      00054     call WR_DATA ;??
                      00055     incf table_counter, F
                      00056     goto D_LOOP
                      00057 D_END
                      00058     endm
                      00059 
                      00060 ;***************************************
                      00061 ; Initialize LCD
                      00062 ;***************************************
0001                  00063 MAIN_INIT
0001   018B           00064     clrf INTCON ; No interrupt
0002   1683           00065     bsf STATUS, RP0
Message[302]: Register in operand not in bank 0.  Ensure that bank bits are correct.
0003   0185           00066     clrf TRISA
0004   30F2           00067     movlw b'11110010' ;Set required keypad inputs (PORTB is KEYPAD)
Message[302]: Register in operand not in bank 0.  Ensure that bank bits are correct.
0005   0086           00068     movwf TRISB
Message[302]: Register in operand not in bank 0.  Ensure that bank bits are correct.
0006   0187           00069     clrf TRISC ;All port C is output
Message[302]: Register in operand not in bank 0.  Ensure that bank bits are correct.
0007   0188           00070     clrf TRISD ;All port D is output (PORTD is LCD)
                      00071 
0008   1283           00072     bcf STATUS, RP0 ;Select bank 0
0009   0185           00073     clrf PORTA
000A   0186           00074     clrf PORTB
000B   0187           00075     clrf PORTC
000C   0188           00076     clrf PORTD
000D   2???           00077     call INITLCD
                      00078 
                      00079 ;*************************************
                      00080 ; Main Program
                      00081 ;*************************************
000E                  00082 MAIN
000E   2???           00083     call CLEAR_LCD
                      00084     DISPLAY WELCOME_MESSAGE
  0000                    M     local D_LOOP
  0000                    M     local D_END
Warning[219]: Invalid RAM location specified.
Message[302]: Register in operand not in bank 0.  Ensure that bank bits are correct.
000F   0183               M     clrf table_counter
0010   0103               M     clrw
0011                      M D_LOOP
Warning[219]: Invalid RAM location specified.
Message[302]: Register in operand not in bank 0.  Ensure that bank bits are correct.
MPASM  5.48                          MAIN.ASM   2-3-2013  4:26:59         PAGE  3


LOC  OBJECT CODE     LINE SOURCE TEXT
  VALUE

0011   0803               M     movf table_counter, W
0012   2???               M     call WELCOME_MESSAGE ;??
0013   3A00               M     xorlw B'00000000' ;used to change STATUS<Z>, if result is 0, then Z=1
0014   1903               M     btfsc STATUS, Z ; if STATUS<Z> is 1, execute next inst. Else, discard next inst.
0015   2???               M         goto D_END
0016   2???               M     call WR_DATA ;??
Warning[219]: Invalid RAM location specified.
Message[302]: Register in operand not in bank 0.  Ensure that bank bits are correct.
0017   0A83               M     incf table_counter, F
0018   2???               M     goto D_LOOP
0019                      M D_END
                      00085 
0019   2???           00086     call SWITCH_LINES
                      00087     DISPLAY INPUT_LINE_CHAR
  0000                    M     local D_LOOP
  0000                    M     local D_END
Warning[219]: Invalid RAM location specified.
Message[302]: Register in operand not in bank 0.  Ensure that bank bits are correct.
001A   0183               M     clrf table_counter
001B   0103               M     clrw
001C                      M D_LOOP
Warning[219]: Invalid RAM location specified.
Message[302]: Register in operand not in bank 0.  Ensure that bank bits are correct.
001C   0803               M     movf table_counter, W
001D   2???               M     call INPUT_LINE_CHAR ;??
001E   3A00               M     xorlw B'00000000' ;used to change STATUS<Z>, if result is 0, then Z=1
001F   1903               M     btfsc STATUS, Z ; if STATUS<Z> is 1, execute next inst. Else, discard next inst.
0020   2???               M         goto D_END
0021   2???               M     call WR_DATA ;??
Warning[219]: Invalid RAM location specified.
Message[302]: Register in operand not in bank 0.  Ensure that bank bits are correct.
0022   0A83               M     incf table_counter, F
0023   2???               M     goto D_LOOP
0024                      M D_END
0024   2???           00088     goto KEYPAD_POLLING
                      00089 
0025                  00090 REALTIME
0025   2???           00091     call CLEAR_LCD
                      00092     DISPLAY REALTIME_MESSAGE
  0000                    M     local D_LOOP
  0000                    M     local D_END
Warning[219]: Invalid RAM location specified.
Message[302]: Register in operand not in bank 0.  Ensure that bank bits are correct.
0026   0183               M     clrf table_counter
0027   0103               M     clrw
0028                      M D_LOOP
Warning[219]: Invalid RAM location specified.
Message[302]: Register in operand not in bank 0.  Ensure that bank bits are correct.
0028   0803               M     movf table_counter, W
0029   2???               M     call REALTIME_MESSAGE ;??
002A   3A00               M     xorlw B'00000000' ;used to change STATUS<Z>, if result is 0, then Z=1
002B   1903               M     btfsc STATUS, Z ; if STATUS<Z> is 1, execute next inst. Else, discard next inst.
002C   2???               M         goto D_END
MPASM  5.48                          MAIN.ASM   2-3-2013  4:26:59         PAGE  4


LOC  OBJECT CODE     LINE SOURCE TEXT
  VALUE

002D   2???               M     call WR_DATA ;??
Warning[219]: Invalid RAM location specified.
Message[302]: Register in operand not in bank 0.  Ensure that bank bits are correct.
002E   0A83               M     incf table_counter, F
002F   2???               M     goto D_LOOP
0030                      M D_END
                      00093 
0030   2???           00094     call SWITCH_LINES
                      00095     DISPLAY INPUT_LINE_CHAR
  0000                    M     local D_LOOP
  0000                    M     local D_END
Warning[219]: Invalid RAM location specified.
Message[302]: Register in operand not in bank 0.  Ensure that bank bits are correct.
0031   0183               M     clrf table_counter
0032   0103               M     clrw
0033                      M D_LOOP
Warning[219]: Invalid RAM location specified.
Message[302]: Register in operand not in bank 0.  Ensure that bank bits are correct.
0033   0803               M     movf table_counter, W
0034   2???               M     call INPUT_LINE_CHAR ;??
0035   3A00               M     xorlw B'00000000' ;used to change STATUS<Z>, if result is 0, then Z=1
0036   1903               M     btfsc STATUS, Z ; if STATUS<Z> is 1, execute next inst. Else, discard next inst.
0037   2???               M         goto D_END
0038   2???               M     call WR_DATA ;??
Warning[219]: Invalid RAM location specified.
Message[302]: Register in operand not in bank 0.  Ensure that bank bits are correct.
0039   0A83               M     incf table_counter, F
003A   2???               M     goto D_LOOP
003B                      M D_END
003B   2???           00096     goto KEYPAD_POLLING
                      00097 
003C                  00098 KEYPAD_POLLING
003C   1C86           00099     btfss KEYPAD_P ;Check if keypad is pressed
003D   2???           00100     goto $-1
003E   0E06           00101     swapf PORTB,W     ;Read PortB<7:4> into W<3:0>, because KEYPAD pins corresponds to RB4-7
003F   390F           00102     andlw 0x0F
                      00103 
0040   2???           00104     call COMPARISON_A
Warning[219]: Invalid RAM location specified.
Message[302]: Register in operand not in bank 0.  Ensure that bank bits are correct.
0041   1C08           00105     btfss A_PRESSED, 0
0042   2???           00106     goto NEXT
0043   2???           00107     goto REALTIME
                      00108 
0044   2???           00109     call COMPARISON_B
Warning[219]: Invalid RAM location specified.
Message[302]: Register in operand not in bank 0.  Ensure that bank bits are correct.
0045   1C09           00110     btfsS B_PRESSED, 0
0046   2???           00111     goto NEXT
0047   2???           00112     goto MAIN
                      00113 
0048                  00114 NEXT
0048   2???           00115     call KEYPAD_INPUT_CHARACTERS ;Convert keypad values to LCD display values
MPASM  5.48                          MAIN.ASM   2-3-2013  4:26:59         PAGE  5


LOC  OBJECT CODE     LINE SOURCE TEXT
  VALUE

0049   2???           00116     call WR_DATA
004A   1886           00117     btfsc KEYPAD_P     ;Wait until key is released
004B   2???           00118     goto $-1
                      00119 
004C   2???           00120     goto KEYPAD_POLLING
                      00121 
004D   2???           00122     goto $
                      00123 
                      00124 ;***************************************
                      00125 ; Look up table
                      00126 ;***************************************
                      00127 
004E                  00128 WELCOME_MESSAGE
004E   0782           00129                 addwf   PCL,F
004F   344D 3461 3469 00130                 dt              "Main Menu", 0
       346E 3420 344D 
       3465 346E 3475 
       3400 
                      00131 
0059                  00132 REALTIME_MESSAGE
0059   0782           00133         addwf   PCL,F
005A   3452 3465 3461 00134         dt      "Real Time", 0
       346C 3420 3454 
       3469 346D 3465 
       3400 
                      00135 
0064                  00136 INPUT_LINE_CHAR
0064   0782           00137                 addwf   PCL,F
0065   343E 3400      00138                 dt              ">",0
                      00139 
0067                  00140 KEYPAD_INPUT_CHARACTERS
0067   0782           00141         addwf   PCL,F
0068   3431 3432 3433 00142         dt      "123A456B789C*0#D"
       3441 3434 3435 
       3436 3442 3437 
       3438 3439 3443 
       342A 3430 3423 
       3444 
                      00143 
                      00144 ;****************************************
                      00145 ; LCD Related Subroutines
                      00146 ;****************************************
0078                  00147 INITLCD
0078   1283           00148     bcf STATUS, RP0
0079   1588           00149     bsf LCD_E
007A   2???           00150     call DELAY_5MS
007B   2???           00151     call DELAY_5MS
007C   2???           00152     call DELAY_5MS
                      00153 
                      00154     ;Ensure 8-bit mode first (no way to immediately guarantee 4-bit mode)
                      00155         ; -> Send b'0011' 3 times
007D   3033           00156         movlw   b'00110011' ;Last two bits are don't cares
007E   2???           00157         call    WR_INST
MPASM  5.48                          MAIN.ASM   2-3-2013  4:26:59         PAGE  6


LOC  OBJECT CODE     LINE SOURCE TEXT
  VALUE

007F   3032           00158         movlw   b'00110010'
0080   2???           00159         call    WR_INST
                      00160 
                      00161     ; 4 bits, 2 lines, 5x7 dots
0081   3028           00162         movlw   b'00101000'
0082   2???           00163         call    WR_INST
                      00164 
                      00165     ; display on/off
0083   300F           00166         movlw   b'00001111'
0084   2???           00167         call    WR_INST
                      00168 
                      00169         ; Entry mode
0085   3006           00170         movlw   b'00000110' ;??
0086   2???           00171         call    WR_INST
                      00172 
                      00173         ; Clear display
0087   3001           00174         movlw   b'00000001'
0088   2???           00175         call    WR_INST
0089   0008           00176         return
                      00177 
                      00178 ;************************************
                      00179 ; LCD CONTROL
                      00180 ;************************************
008A                  00181 CLEAR_LCD
008A   3001           00182         movlw   B'00000001'
008B   2???           00183         call    WR_INST
008C   0008           00184     return
                      00185 
008D                  00186 SWITCH_LINES
008D   30C0           00187     movlw       B'11000000'
008E   2???           00188         call    WR_INST
008F   0008           00189         return
                      00190 
                      00191 ;****************************************
                      00192 ; Write command to LCD - Input : W , output : -
                      00193 ; (Text P. 7-104)
                      00194 ;****************************************
0090                  00195 WR_INST
0090   1108           00196     bcf LCD_RS
Warning[219]: Invalid RAM location specified.
Message[302]: Register in operand not in bank 0.  Ensure that bank bits are correct.
0091   0082           00197     movwf com
0092   39F0           00198     andlw 0xf0
0093   0088           00199     movwf PORTD
0094   1588           00200     bsf LCD_E
0095   2???           00201     call DELAY_5MS
0096   1188           00202     bcf LCD_E
Warning[219]: Invalid RAM location specified.
Message[302]: Register in operand not in bank 0.  Ensure that bank bits are correct.
0097   0E02           00203     swapf com, W
0098   39F0           00204     andlw 0xf0
0099   0088           00205     movwf PORTD
009A   1588           00206     bsf LCD_E
MPASM  5.48                          MAIN.ASM   2-3-2013  4:26:59         PAGE  7


LOC  OBJECT CODE     LINE SOURCE TEXT
  VALUE

009B   2???           00207     call DELAY_5MS
009C   1188           00208     bcf LCD_E
009D   2???           00209     call DELAY_5MS
009E   0008           00210     return
                      00211 
                      00212 ;****************************************
                      00213 ; Write data to LCD - Input : W , output : -
                      00214 ;****************************************
009F                  00215 WR_DATA
009F   1508           00216     bsf LCD_RS ;Exactly the same as bsf PORTD, 2. RS - Register selected
Warning[219]: Invalid RAM location specified.
Message[302]: Register in operand not in bank 0.  Ensure that bank bits are correct.
00A0   0084           00217     movwf dat ;Creates a copy of W into dat
                      00218     ;movf dat, W ;?? Not sure why this line is needed, works without it
00A1   39F0           00219     andlw 0xf0 ;??
00A2   3E04           00220     addlw 4 ;?? Set RD2 to 1, and RD2 is RS. When RS is 1, you can write data to LCD, when RS is 0, you 
                            can write command it LCD
00A3   0088           00221     movwf PORTD
00A4   1588           00222     bsf LCD_E
00A5   2???           00223     call DELAY_5MS
Warning[219]: Invalid RAM location specified.
Message[302]: Register in operand not in bank 0.  Ensure that bank bits are correct.
00A6   0E04           00224     swapf dat,W ;Swaps the lower half and upper half of dat and store in W
00A7   39F0           00225         andlw 0xF0
00A8   3E04           00226         addlw 4
00A9   0088           00227         movwf PORTD
00AA   1588           00228         bsf LCD_E
00AB   2???           00229         call DELAY_5MS
00AC   1188           00230         bcf LCD_E
00AD   0008           00231         return
                      00232 
00AE                  00233 DELAY_5MS ;~5ms
00AE   3014           00234     movlw d'20' ;20 seems to be arbitrary chosen. Less than 20 doesn't seem to work
Warning[219]: Invalid RAM location specified.
Message[302]: Register in operand not in bank 0.  Ensure that bank bits are correct.
00AF   0081           00235     movwf lcd_d2
00B0                  00236 DELAY_5MS_LOOP
                      00237     LCD_DELAY
00B0   30FF               M     movlw 0xff
Warning[219]: Invalid RAM location specified.
Message[302]: Register in operand not in bank 0.  Ensure that bank bits are correct.
00B1   0080               M     movwf lcd_d1
Warning[219]: Invalid RAM location specified.
Message[302]: Register in operand not in bank 0.  Ensure that bank bits are correct.
00B2   0B80               M     decfsz lcd_d1, f ; Decrement lcd_d1, if lcd_d1 = 0, then discard next instruction
00B3   2???               M     goto $-1
Warning[219]: Invalid RAM location specified.
Message[302]: Register in operand not in bank 0.  Ensure that bank bits are correct.
00B4   0B81           00238     decfsz lcd_d2,f ;Calls LCD_DELAY 20 times
00B5   2???           00239     goto DELAY_5MS_LOOP
00B6   0008           00240     return
                      00241 
                      00242 ;***************************************
MPASM  5.48                          MAIN.ASM   2-3-2013  4:26:59         PAGE  8


LOC  OBJECT CODE     LINE SOURCE TEXT
  VALUE

                      00243 ; Delay 0.5s
                      00244 ;***************************************
00B7                  00245 DELAY_500MS
  0000                00246         local DELAY_500MS_0
00B7   3088           00247     movlw 0x88
Warning[219]: Invalid RAM location specified.
Message[302]: Register in operand not in bank 0.  Ensure that bank bits are correct.
00B8   0085           00248     movwf COUNTH
00B9   30BD           00249     movlw 0xBD
Warning[219]: Invalid RAM location specified.
Message[302]: Register in operand not in bank 0.  Ensure that bank bits are correct.
00BA   0086           00250     movwf COUNTM
00BB   3003           00251     movlw 0x03
Warning[219]: Invalid RAM location specified.
Message[302]: Register in operand not in bank 0.  Ensure that bank bits are correct.
00BC   0087           00252     movwf COUNTL
00BD                  00253 DELAY_500MS_0
Warning[219]: Invalid RAM location specified.
Message[302]: Register in operand not in bank 0.  Ensure that bank bits are correct.
00BD   0B85           00254     decfsz COUNTH, f
00BE   2???           00255     goto   $+2
Warning[219]: Invalid RAM location specified.
Message[302]: Register in operand not in bank 0.  Ensure that bank bits are correct.
00BF   0B86           00256     decfsz COUNTM, f
00C0   2???           00257     goto   $+2
Warning[219]: Invalid RAM location specified.
Message[302]: Register in operand not in bank 0.  Ensure that bank bits are correct.
00C1   0B87           00258     decfsz COUNTL, f
00C2   2???           00259     goto   DELAY_500MS_0
00C3   2???           00260     goto $+1
00C4   0000           00261     nop
00C5   0000           00262     nop
00C6   0008           00263     return
                      00264 
00C7                  00265 COMPARISON_A
Warning[219]: Invalid RAM location specified.
Message[302]: Register in operand not in bank 0.  Ensure that bank bits are correct.
00C7   008B           00266     movwf w_temp
Warning[219]: Invalid RAM location specified.
Message[302]: Register in operand not in bank 0.  Ensure that bank bits are correct.
00C8   008A           00267     movwf comp_temp
Warning[219]: Invalid RAM location specified.
Message[302]: Register in operand not in bank 0.  Ensure that bank bits are correct.
00C9   180A           00268     btfsc comp_temp, 0
00CA   2???           00269     goto $+2
Warning[219]: Invalid RAM location specified.
Message[302]: Register in operand not in bank 0.  Ensure that bank bits are correct.
00CB   1C8A           00270     btfss comp_temp, 1
00CC   2???           00271     goto $+2
Warning[219]: Invalid RAM location specified.
Message[302]: Register in operand not in bank 0.  Ensure that bank bits are correct.
00CD   190A           00272     btfsc comp_temp, 2
00CE   2???           00273     goto $+2
MPASM  5.48                          MAIN.ASM   2-3-2013  4:26:59         PAGE  9


LOC  OBJECT CODE     LINE SOURCE TEXT
  VALUE

Warning[219]: Invalid RAM location specified.
Message[302]: Register in operand not in bank 0.  Ensure that bank bits are correct.
00CF   198A           00274     btfsc comp_temp, 3
00D0   2???           00275     goto $+4
00D1   0103           00276     clrw
00D2   0701           00277     addwf 1, W
Warning[219]: Invalid RAM location specified.
Message[302]: Register in operand not in bank 0.  Ensure that bank bits are correct.
00D3   0088           00278     movwf A_PRESSED
Warning[219]: Invalid RAM location specified.
Message[302]: Register in operand not in bank 0.  Ensure that bank bits are correct.
00D4   080B           00279     movf w_temp, W
00D5   0008           00280     return
                      00281 
00D6                  00282 COMPARISON_B
Warning[219]: Invalid RAM location specified.
Message[302]: Register in operand not in bank 0.  Ensure that bank bits are correct.
00D6   008B           00283     movwf w_temp
Warning[219]: Invalid RAM location specified.
Message[302]: Register in operand not in bank 0.  Ensure that bank bits are correct.
00D7   008A           00284     movwf comp_temp
Warning[219]: Invalid RAM location specified.
Message[302]: Register in operand not in bank 0.  Ensure that bank bits are correct.
00D8   1C0A           00285     btfss comp_temp, 0
00D9   2???           00286     goto $+2
Warning[219]: Invalid RAM location specified.
Message[302]: Register in operand not in bank 0.  Ensure that bank bits are correct.
00DA   188A           00287     btfsc comp_temp, 1
00DB   2???           00288     goto $+2
Warning[219]: Invalid RAM location specified.
Message[302]: Register in operand not in bank 0.  Ensure that bank bits are correct.
00DC   190A           00289     btfsc comp_temp, 2
00DD   2???           00290     goto $+2
Warning[219]: Invalid RAM location specified.
Message[302]: Register in operand not in bank 0.  Ensure that bank bits are correct.
00DE   198A           00291     btfsc comp_temp, 3
00DF   2???           00292     goto $+4
00E0   0103           00293     clrw
00E1   0701           00294     addwf 1, W
Warning[219]: Invalid RAM location specified.
Message[302]: Register in operand not in bank 0.  Ensure that bank bits are correct.
00E2   0089           00295     movwf B_PRESSED
Warning[219]: Invalid RAM location specified.
Message[302]: Register in operand not in bank 0.  Ensure that bank bits are correct.
00E3   080B           00296     movf w_temp, W
00E4   0008           00297     return
                      00298 
3F72                  00299     END
MPASM  5.48                          MAIN.ASM   2-3-2013  4:26:59         PAGE 10


SYMBOL TABLE
  LABEL                             VALUE 

ACKDT                             00000005
ACKEN                             00000004
ACKSTAT                           00000006
ADCON0                            0000001F
ADCON1                            0000009F
ADCS0                             00000006
ADCS1                             00000007
ADDEN                             00000003
ADFM                              00000007
ADIE                              00000006
ADIF                              00000006
ADON                              00000000
ADRESH                            0000001E
ADRESL                            0000009E
A_PRESSED                         00001008
BCLIE                             00000003
BCLIF                             00000003
BF                                00000000
BRGH                              00000002
B_PRESSED                         00001009
C                                 00000000
CCP1CON                           00000017
CCP1IE                            00000002
CCP1IF                            00000002
CCP1M0                            00000000
CCP1M1                            00000001
CCP1M2                            00000002
CCP1M3                            00000003
CCP1X                             00000005
CCP1Y                             00000004
CCP2CON                           0000001D
CCP2IE                            00000000
CCP2IF                            00000000
CCP2M0                            00000000
CCP2M1                            00000001
CCP2M2                            00000002
CCP2M3                            00000003
CCP2X                             00000005
CCP2Y                             00000004
CCPR1                             00000015
CCPR1H                            00000016
CCPR1L                            00000015
CCPR2                             0000001B
CCPR2H                            0000001C
CCPR2L                            0000001B
CHS0                              00000003
CHS1                              00000004
CHS2                              00000005
CKE                               00000006
CKP                               00000004
CLEAR_LCD                         0000008A
COMPARISON_A                      000000C7
COMPARISON_B                      000000D6
MPASM  5.48                          MAIN.ASM   2-3-2013  4:26:59         PAGE 11


SYMBOL TABLE
  LABEL                             VALUE 

COUNTH                            00001005
COUNTL                            00001007
COUNTM                            00001006
CREN                              00000004
CSRC                              00000007
D                                 00000005
DATA_ADDRESS                      00000005
DC                                00000001
DELAY_500MS                       000000B7
DELAY_5MS                         000000AE
DELAY_5MS_LOOP                    000000B0
DISPLAY                           
D_A                               00000005
D_NOT_A                           00000005
EEADR                             0000010D
EEADRH                            0000010F
EECON1                            0000018C
EECON2                            0000018D
EEDATA                            0000010C
EEDATH                            0000010E
EEIE                              00000004
EEIF                              00000004
EEPGD                             00000007
F                                 00000001
FERR                              00000002
FSR                               00000004
GCEN                              00000007
GIE                               00000007
GO                                00000002
GO_DONE                           00000002
GO_NOT_DONE                       00000002
I2C_DATA                          00000005
I2C_READ                          00000002
I2C_START                         00000003
I2C_STOP                          00000004
IBF                               00000007
IBOV                              00000005
INDF                              00000000
INITLCD                           00000078
INPUT_LINE_CHAR                   00000064
INTCON                            0000000B
INTE                              00000004
INTEDG                            00000006
INTF                              00000001
IRP                               00000007
KEYPAD_INPUT_CHARACTERS           00000067
KEYPAD_P                          PORTB,1
KEYPAD_POLLING                    0000003C
LCD_DELAY                         
LCD_E                             PORTD,3
LCD_RS                            PORTD,2
MAIN                              0000000E
MAIN_INIT                         00000001
MPASM  5.48                          MAIN.ASM   2-3-2013  4:26:59         PAGE 12


SYMBOL TABLE
  LABEL                             VALUE 

NEXT                              00000048
NOT_A                             00000005
NOT_ADDRESS                       00000005
NOT_BO                            00000000
NOT_BOR                           00000000
NOT_DONE                          00000002
NOT_PD                            00000003
NOT_POR                           00000001
NOT_RBPU                          00000007
NOT_RC8                           00000006
NOT_T1SYNC                        00000002
NOT_TO                            00000004
NOT_TX8                           00000006
NOT_W                             00000002
NOT_WRITE                         00000002
OBF                               00000006
OERR                              00000001
OPTION_REG                        00000081
P                                 00000004
PCFG0                             00000000
PCFG1                             00000001
PCFG2                             00000002
PCFG3                             00000003
PCL                               00000002
PCLATH                            0000000A
PCON                              0000008E
PEIE                              00000006
PEN                               00000002
PIE1                              0000008C
PIE2                              0000008D
PIR1                              0000000C
PIR2                              0000000D
PORTA                             00000005
PORTB                             00000006
PORTC                             00000007
PORTD                             00000008
PORTE                             00000009
PR2                               00000092
PS0                               00000000
PS1                               00000001
PS2                               00000002
PSA                               00000003
PSPIE                             00000007
PSPIF                             00000007
PSPMODE                           00000004
R                                 00000002
RA0                               00000000
RA1                               00000001
RA2                               00000002
RA3                               00000003
RA4                               00000004
RA5                               00000005
RB0                               00000000
MPASM  5.48                          MAIN.ASM   2-3-2013  4:26:59         PAGE 13


SYMBOL TABLE
  LABEL                             VALUE 

RB1                               00000001
RB2                               00000002
RB3                               00000003
RB4                               00000004
RB5                               00000005
RB6                               00000006
RB7                               00000007
RBIE                              00000003
RBIF                              00000000
RC0                               00000000
RC1                               00000001
RC2                               00000002
RC3                               00000003
RC4                               00000004
RC5                               00000005
RC6                               00000006
RC7                               00000007
RC8_9                             00000006
RC9                               00000006
RCD8                              00000000
RCEN                              00000003
RCIE                              00000005
RCIF                              00000005
RCREG                             0000001A
RCSTA                             00000018
RD                                00000000
RD0                               00000000
RD1                               00000001
RD2                               00000002
RD3                               00000003
RD4                               00000004
RD5                               00000005
RD6                               00000006
RD7                               00000007
RE0                               00000000
RE1                               00000001
RE2                               00000002
READ_WRITE                        00000002
REALTIME                          00000025
REALTIME_MESSAGE                  00000059
RP0                               00000005
RP1                               00000006
RSEN                              00000001
RX9                               00000006
RX9D                              00000000
R_NOT_W                           00000002
R_W                               00000002
S                                 00000003
SEN                               00000000
SMP                               00000007
SPBRG                             00000099
SPEN                              00000007
SREN                              00000005
MPASM  5.48                          MAIN.ASM   2-3-2013  4:26:59         PAGE 14


SYMBOL TABLE
  LABEL                             VALUE 

SSPADD                            00000093
SSPBUF                            00000013
SSPCON                            00000014
SSPCON2                           00000091
SSPEN                             00000005
SSPIE                             00000003
SSPIF                             00000003
SSPM0                             00000000
SSPM1                             00000001
SSPM2                             00000002
SSPM3                             00000003
SSPOV                             00000006
SSPSTAT                           00000094
STATUS                            00000003
SWITCH_LINES                      0000008D
SYNC                              00000004
T0CS                              00000005
T0IE                              00000005
T0IF                              00000002
T0SE                              00000004
T1CKPS0                           00000004
T1CKPS1                           00000005
T1CON                             00000010
T1INSYNC                          00000002
T1OSCEN                           00000003
T1SYNC                            00000002
T2CKPS0                           00000000
T2CKPS1                           00000001
T2CON                             00000012
TMR0                              00000001
TMR0IE                            00000005
TMR0IF                            00000002
TMR1                              0000000E
TMR1CS                            00000001
TMR1H                             0000000F
TMR1IE                            00000000
TMR1IF                            00000000
TMR1L                             0000000E
TMR1ON                            00000000
TMR2                              00000011
TMR2IE                            00000001
TMR2IF                            00000001
TMR2ON                            00000002
TOUTPS0                           00000003
TOUTPS1                           00000004
TOUTPS2                           00000005
TOUTPS3                           00000006
TRISA                             00000085
TRISA0                            00000000
TRISA1                            00000001
TRISA2                            00000002
TRISA3                            00000003
TRISA4                            00000004
MPASM  5.48                          MAIN.ASM   2-3-2013  4:26:59         PAGE 15


SYMBOL TABLE
  LABEL                             VALUE 

TRISA5                            00000005
TRISB                             00000086
TRISB0                            00000000
TRISB1                            00000001
TRISB2                            00000002
TRISB3                            00000003
TRISB4                            00000004
TRISB5                            00000005
TRISB6                            00000006
TRISB7                            00000007
TRISC                             00000087
TRISC0                            00000000
TRISC1                            00000001
TRISC2                            00000002
TRISC3                            00000003
TRISC4                            00000004
TRISC5                            00000005
TRISC6                            00000006
TRISC7                            00000007
TRISD                             00000088
TRISD0                            00000000
TRISD1                            00000001
TRISD2                            00000002
TRISD3                            00000003
TRISD4                            00000004
TRISD5                            00000005
TRISD6                            00000006
TRISD7                            00000007
TRISE                             00000089
TRISE0                            00000000
TRISE1                            00000001
TRISE2                            00000002
TRMT                              00000001
TX8_9                             00000006
TX9                               00000006
TX9D                              00000000
TXD8                              00000000
TXEN                              00000005
TXIE                              00000004
TXIF                              00000004
TXREG                             00000019
TXSTA                             00000098
UA                                00000001
W                                 00000000
WCOL                              00000007
WELCOME_MESSAGE                   0000004E
WR                                00000001
WREN                              00000002
WRERR                             00000003
WR_DATA                           0000009F
WR_INST                           00000090
Z                                 00000002
_.org_0_003D                      0000003D
MPASM  5.48                          MAIN.ASM   2-3-2013  4:26:59         PAGE 16


SYMBOL TABLE
  LABEL                             VALUE 

_.org_0_004B                      0000004B
_.org_0_004D                      0000004D
_.org_0_00B3                      000000B3
_.org_0_00BE                      000000BE
_.org_0_00C0                      000000C0
_.org_0_00C3                      000000C3
_.org_0_00CA                      000000CA
_.org_0_00CC                      000000CC
_.org_0_00CE                      000000CE
_.org_0_00D0                      000000D0
_.org_0_00D9                      000000D9
_.org_0_00DB                      000000DB
_.org_0_00DD                      000000DD
_.org_0_00DF                      000000DF
_BODEN_OFF                        00003FBF
_BODEN_ON                         00003FFF
_BOREN_OFF                        00003FBF
_BOREN_ON                         00003FFF
_CONFIG                           00002007
_CPD_OFF                          00003FFF
_CPD_ON                           00003EFF
_CP_ALL                           00000FCF
_CP_HALF                          00001FDF
_CP_OFF                           00003FFF
_CP_UPPER_256                     00002FEF
_DEBUG_OFF                        00003FFF
_DEBUG_ON                         000037FF
_DEVID1                           00002006
_FOSC_EXTRC                       00003FFF
_FOSC_HS                          00003FFE
_FOSC_LP                          00003FFC
_FOSC_XT                          00003FFD
_HS_OSC                           00003FFE
_IDLOC0                           00002000
_IDLOC1                           00002001
_IDLOC2                           00002002
_IDLOC3                           00002003
_LP_OSC                           00003FFC
_LVP_OFF                          00003F7F
_LVP_ON                           00003FFF
_PWRTE_OFF                        00003FFF
_PWRTE_ON                         00003FF7
_RC_OSC                           00003FFF
_WDTE_OFF                         00003FFB
_WDTE_ON                          00003FFF
_WDT_OFF                          00003FFB
_WDT_ON                           00003FFF
_WRT_ENABLE_OFF                   00003DFF
_WRT_ENABLE_ON                    00003FFF
_WRT_OFF                          00003DFF
_WRT_ON                           00003FFF
_XT_OSC                           00003FFD
__16F877                          00000001
MPASM  5.48                          MAIN.ASM   2-3-2013  4:26:59         PAGE 17


SYMBOL TABLE
  LABEL                             VALUE 

com                               00001002
comp_temp                         0000100A
dat                               00001004
lcd_d1                            00001000
lcd_d2                            00001001
table_counter                     00001003
w_temp                            0000100B

Errors   :     0
Warnings :    44 reported,     0 suppressed
Messages :    48 reported,     0 suppressed

