MPASM  5.48                           LCD.ASM   4-9-2013  10:29:00         PAGE  1


LOC  OBJECT CODE     LINE SOURCE TEXT
  VALUE

                      00001     #include <p16f877.inc>
                      00001         LIST
                      00002 
                      00003 ;==========================================================================
                      00004 ;  MPASM PIC16F877 processor include
                      00005 ; 
                      00006 ;  (c) Copyright 1999-2012 Microchip Technology, All rights reserved
                      00007 ;==========================================================================
                      00008 
                      00540         LIST
                      00002     #include <common.inc>
                      00001         ;extern LCD_init, LCD_clear, LCD_line2s, LCD_out, LCD_wt, delay50us, delay5ms, delayX5msm, delay
                            100ms, delayX100msm, delay1sl
                      00002 
                      00003 
                      00004         #define DEBUG
                      00005         #define NULL 0x00 ; must not change
                      00006         #define FALSE 0x00 ; must not change
                      00007         #define TRUE 0xFF ; must not change
                      00008         #define KEYPAD_DA PORTB, 1
                      00009         #define SMOTOR_S0 PORTD, 0
                      00010         #define SMOTOR_S1 PORTD, 1
                      00011         #define SMOTOR_S2 PORTE, 0
                      00012         #define SMOTOR_S3 PORTE, 1
                      00013         #define SMOTOR_EN PORTE, 2
                      00014         #define PMOTOR PORTC, 1
                      00015     #define SWMOTOR PORTC, 0
                      00016     #define VMOTOR_C0 PORTC, 2
                      00017         #define VMOTOR_C1 PORTC, 3
                      00018         ;#define IRLED PORTC, 2
                      00019         ;#define FB_TOP PORTC, 5
                      00020         ;#define FB_BOT PORTC, 6
                      00021         #define FB_ROW4 PORTC, 7
                      00022         #define LCD_RS PORTD, 2
                      00023         #define LCD_E PORTD, 3
                      00024         #define LCD_PORT PORTD
                      00025         #define CL_POS_BIT 0
                      00026         #define CL_FN_BIT 1
                      00027         #define CL_ERR_BIT 2
                      00028         #define STOP_BUT 0x0B ; stop buttom
                      00029         #define PHASE_HDINIT 0 ; Phase 0: Hardware Initialization/Reset
                      00030         #define PHASE_RTCINIT 1 ; Phase 1: RTC Initialization/Reset
                      00031         #define PHASE_REALTIME 2 ; Phase 2: Real Time
                      00032         #define PHASE_NOREPORT 3 ; Phase 3: No Report
                      00033         #define PHASE_REPORT 4 ; Phase 4: Report Review
                      00034         #define PHASE_RUN 5 ; Phase 5: Inspection Run
                      00035         #define PHASE_FINISH 6 ; Phase 6: Inspection Finish
                      00036         ; pull-up diable, Timer0 internal clk, pos edge, 1:64
                      00037         #define INITVAL_OPTREG B'10000101'
                      00038         #define INITVAL_TRISA B'00101111'
                      00039         #define INITVAL_TRISB B'11110010'
                      00040         #define INITVAL_TRISC B'11100000' ;B'11100000'!!!!
                      00041         #define INITVAL_TRISD B'00000000'
MPASM  5.48                           LCD.ASM   4-9-2013  10:29:00         PAGE  2


LOC  OBJECT CODE     LINE SOURCE TEXT
  VALUE

                      00042         #define INITVAL_TRISE B'00000000'
                      00043         #define INITVAL_ADCON0 B'10000001' ; 32Tosc, AN0, ADC on
                      00044         #define INITVAL_ADCON1 B'00000100' ; left justified, 3 channel, 0 Vref, RA0, RA1, RA3
                      00045 ;******************CONSTANTS****************************************************
  00000006            00046 MAXLINE EQU .6 ; (max "line_num" - 1) in report phase
  00000014            00047 MAXPOS EQU .20 ; total positions = ROWS*COLS
  00000004            00048 ROWS EQU .4 ; total 4 rows to move
  00000005            00049 COLS EQU .5 ; total 5 cols in a row
  00000002            00050 FSNUM EQU .2 ; number of force sensors
  00000003            00051 MAXCLINROW EQU .3 ; max number of CLs possible in a row
  0000001E            00052 DCDOWNDELAY EQU .30 ; * 0.1s == elapse time for DC motor to drive down
  0000001C            00053 SMOTOR_STEPS EQU .28 ; * 4 == # of steps that stepper motor need to turn
  00000006            00054 SMOTOR_SPD_F EQU .6 ; speed fact: speed = 1 step / (SMOTOR_SPD_F * 5ms)
  00000050            00055 THD_CL3LED EQU .80 ; threshold to distinguish between 2 LEDs and 3LEDS
  0000001C            00056 THD_IRLED EQU .28 ; threshold for infrared reflected light
  00000005            00057 THD_BG EQU .5 ; threshold for background variation (add to light_bg)
  0000000C            00058 MAXLOG EQU .12 ; max number of log
  00000006            00059 MAXLOGBANK EQU .6 ; max number of log per bank = MAXLOG/2
  00000010            00060 LOGLENGTH EQU .16 ; length of each log entry
  00000004            00061 LIGHTAVGX EQU .4 ; number of sample light sensor reading to be averaged
                      00062 ;******************MACROS*******************************************************
                      00063 BANK0 macro
                      00064         bcf STATUS, RP0
                      00065         endm
                      00066 BANK1 macro
                      00067         bsf STATUS, RP0
                      00068         endm
                      00069 BANK00 macro
                      00070         bcf STATUS, IRP
                      00071         bcf STATUS, RP1
                      00072         bcf STATUS, RP0
                      00073         endm
                      00074         ;BANK02 macro
                      00075         ; bsf STATUS, IRP
                      00076         ; bsf STATUS, RP1
                      00077         ; bcf STATUS, RP0
                      00078         ; endm
                      00079         ;
                      00080         ;BANK03 macro
                      00081         ; bsf STATUS, IRP
                      00082         ; bsf STATUS, RP1
                      00083         ; bsf STATUS, RP0
                      00084         ; endm
                      00085         ; Affect W!
                      00086 MOVFF macro dest, orig
                      00087         movf orig, w
                      00088         movwf dest
                      00089         endm
                      00090 ; Affect W!
                      00091 MOVLF macro dest, literal
                      00092         movlw literal
                      00093         movwf dest
                      00094         endm
MPASM  5.48                           LCD.ASM   4-9-2013  10:29:00         PAGE  3


LOC  OBJECT CODE     LINE SOURCE TEXT
  VALUE

                      00095 
                      00096 FCALL macro subroutine
                      00097     local here
                      00098     lcall subroutine
                      00099     pagesel here
                      00100 here:
                      00101     endm
  0000                00003     extern delay50us, delay5ms, delayX5msm, delay1sl
  0000                00004     global LCD_init, LCD_clear, LCD_line2, LCD_out, LCD_wt
                      00005         ;Declare unbanked variables (at 0x70 and on)
                      00006         UDATA_SHR
0000                  00007 lcd_tmp res 1
                      00008 ;*******************************************************************************
                      00009 ; "ClkLCD": LCD Enable Click Function
                      00010 ; Func: Pulse the E line low
                      00011 ; Input: None
                      00012 ; Output: None
                      00013 ; Affect: STATUS, delaytemp, delaycount
                      00014 ; Runtime: 102.4 us
                      00015 ;*******************************************************************************
                      00016 ClkLCD macro
                      00017         call delay50us
                      00018         bcf LCD_E
                      00019         call delay50us
                      00020         bsf LCD_E
                      00021     endm
                      00022 ;*******************************************************************************
                      00023 ; "MovMSB": Most Significant Bits Move Function
                      00024 ; Func: Move MSB of W to LCD_PORT<4:7>, without disturbing LSB
                      00025 ; Input: W
                      00026 ; Output: LCD_PORT
                      00027 ; Affect: STATUS
                      00028 ; Runtime: 3.2 us
                      00029 ;*******************************************************************************
                      00030 MovMSB macro
                      00031         andlw 0xF0
                      00032         iorwf LCD_PORT,f
                      00033         iorlw 0x0F
                      00034         andwf LCD_PORT,f
                      00035         endm
                      00036 
                      00037         code
                      00038 ;*******************************************************************************
                      00039 ; "LCD_init": LCD Initialization Function
                      00040 ; Func: Initialize LCD after reset
                      00041 ; Input: None
                      00042 ; Output: None
                      00043 ; Affect: delaytemp, delaycount, delaytemp2, delaycount2,
                      00044 ; Runtime: 37,074.8 us
                      00045 ;*******************************************************************************
0000                  00046 LCD_init
                      00047         BANK0
0000   1283               M         bcf STATUS, RP0
MPASM  5.48                           LCD.ASM   4-9-2013  10:29:00         PAGE  4


LOC  OBJECT CODE     LINE SOURCE TEXT
  VALUE

0001   1588           00048         bsf LCD_E ; E default high
                      00049         ; Wait for more than 15ms after VDD rises to 4.5V (20ms)
0002   2???           00050         call delay5ms
0003   2???           00051         call delay5ms
0004   2???           00052         call delay5ms
0005   2???           00053         call delay5ms
                      00054         ;Ensure 8-bit mode first (no way to immediately guarantee 4-bit mode)
                      00055          ; -> Send b'0011' 3 times
0006   1108           00056         bcf LCD_RS ; Instruction mode
0007   3030           00057         movlw B'00110000'
                      00058         MovMSB
0008   39F0               M         andlw 0xF0
0009   0488               M         iorwf LCD_PORT,f
000A   380F               M         iorlw 0x0F
000B   0588               M         andwf LCD_PORT,f
                      00059         ; Finish last 4-bit send (if reset occurred in middle of a send)
                      00060         ClkLCD
000C   2???               M         call delay50us
000D   1188               M         bcf LCD_E
000E   2???               M         call delay50us
000F   1588               M         bsf LCD_E
0010   2???           00061         call delay5ms ; Wait for more than max instruction time 4.1ms(5ms)
                      00062         ClkLCD ; Assuming 4-bit mode, set 8-bit mode
0011   2???               M         call delay50us
0012   1188               M         bcf LCD_E
0013   2???               M         call delay50us
0014   1588               M         bsf LCD_E
0015   2???           00063         call delay50us ; Wait for more than 100us
0016   2???           00064         call delay50us
                      00065         ClkLCD
0017   2???               M         call delay50us
0018   1188               M         bcf LCD_E
0019   2???               M         call delay50us
001A   1588               M         bsf LCD_E
                      00066         ; (note: if it's in 8-bit mode already, it will stay in 8-bit mode)
                      00067         ; Now that we know for sure it's in 8-bit mode, set 4-bit mode.
001B   3020           00068         movlw B'00100000'
                      00069         MovMSB
001C   39F0               M         andlw 0xF0
001D   0488               M         iorwf LCD_PORT,f
001E   380F               M         iorlw 0x0F
001F   0588               M         andwf LCD_PORT,f
                      00070         ClkLCD
0020   2???               M         call delay50us
0021   1188               M         bcf LCD_E
0022   2???               M         call delay50us
0023   1588               M         bsf LCD_E
                      00071         ; Give LCD init instructions
0024   3028           00072         movlw B'00101000' ; 4 bits, 2 lines,5X8 dot
0025   2???           00073         call LCD_wt
0026   300F           00074         movlw B'00001111' ; display on,cursor,blink
0027   2???           00075         call LCD_wt
0028   3006           00076         movlw B'00000110' ; Increment,no shift
MPASM  5.48                           LCD.ASM   4-9-2013  10:29:00         PAGE  5


LOC  OBJECT CODE     LINE SOURCE TEXT
  VALUE

0029   2???           00077         call LCD_wt
                      00078         ; Ready to display characters
002A   2???           00079         call LCD_clear
002B   1508           00080         bsf LCD_RS ; Character mode
002C   0008           00081         return
                      00082 ;*******************************************************************************
                      00083 ; "LCD_clear": LCD Clear Function
                      00084 ; Func: Clear the LCD display using clear command
                      00085 ; Input: None
                      00086 ; Output: None
                      00087 ; Affect: W, STATUS, delaytemp, delaycount, lcd_temp
                      00088 ; Runtime: 2,264.8 us
                      00089 ;*******************************************************************************
002D                  00090 LCD_clear
002D   1108           00091         bcf LCD_RS ;Instruction mode
002E   3001           00092         movlw B'00000001'
002F   2???           00093         call LCD_wt
                      00094         ; expected excution time: 1.64ms (~2ms)
0030   3028           00095         movlw .40
0031   00??           00096         movwf lcd_tmp
0032   2???           00097         call delay50us
0033   0B??           00098         decfsz lcd_tmp, f
0034   2???           00099         goto $-2
0035   1508           00100         bsf LCD_RS ; Character mode
0036   0008           00101         return
                      00102 ;*******************************************************************************
                      00103 ; "LCD_line2": LCD Move to Seocnd Line Function
                      00104 ; Func: Move the LCD cursor to second Line
                      00105 ; Input: None
                      00106 ; Output: None
                      00107 ; Affect: W, STATUS, delaytemp, delaycount
                      00108 ; Runtime: 216.4 us
                      00109 ;*******************************************************************************
0037                  00110 LCD_line2
0037   1108           00111         bcf LCD_RS ; Instruction mode
0038   30C0           00112         movlw B'11000000' ; shift position to 40h : second line
0039   2???           00113         call LCD_wt
003A   1508           00114         bsf LCD_RS ; Character mode
003B   0008           00115         return
                      00116 ;*******************************************************************************
                      00117 ; "LCD_out": LCD Move Out of Screen Function
                      00118 ; Func: Move the LCD cursor out of screen (to 50h)
                      00119 ; Input: None
                      00120 ; Output: None
                      00121 ; Affect: W, STATUS, delaytemp, delaycount
                      00122 ; Runtime: 216.4 us
                      00123 ;*******************************************************************************
003C                  00124 LCD_out
003C   1108           00125         bcf LCD_RS ; Instruction mode
003D   30D0           00126         movlw B'11010000' ; shift position to 50h : out of screen
003E   2???           00127         call LCD_wt
003F   1508           00128         bsf LCD_RS ; Character mode
0040   0008           00129         return
MPASM  5.48                           LCD.ASM   4-9-2013  10:29:00         PAGE  6


LOC  OBJECT CODE     LINE SOURCE TEXT
  VALUE

                      00130 ;*******************************************************************************
                      00131 ; "LCD_wt": LCD Write Function
                      00132 ; Func: Clock MSB and LSB of W to LCD_PORT<7:4> in two cycles
                      00133 ; Input: W
                      00134 ; Output: None
                      00135 ; Affect: W, STATUS, delaytemp, delaycount
                      00136 ; Runtime: 213.6 us
                      00137 ;*******************************************************************************
0041                  00138 LCD_wt
0041   00??           00139         movwf lcd_tmp ; store original value
                      00140         MovMSB ; move MSB to PORTD
0042   39F0               M         andlw 0xF0
0043   0488               M         iorwf LCD_PORT,f
0044   380F               M         iorlw 0x0F
0045   0588               M         andwf LCD_PORT,f
                      00141         ClkLCD
0046   2???               M         call delay50us
0047   1188               M         bcf LCD_E
0048   2???               M         call delay50us
0049   1588               M         bsf LCD_E
004A   0E??           00142         swapf lcd_tmp,w ; Swap LSB of value into MSB of W
                      00143         MovMSB ; move to PORTD
004B   39F0               M         andlw 0xF0
004C   0488               M         iorwf LCD_PORT,f
004D   380F               M         iorlw 0x0F
004E   0588               M         andwf LCD_PORT,f
                      00144         ClkLCD
004F   2???               M         call delay50us
0050   1188               M         bcf LCD_E
0051   2???               M         call delay50us
0052   1588               M         bsf LCD_E
0053   0008           00145         return
                      00146         end
MPASM  5.48                           LCD.ASM   4-9-2013  10:29:00         PAGE  7


SYMBOL TABLE
  LABEL                             VALUE 

ACKDT                             00000005
ACKEN                             00000004
ACKSTAT                           00000006
ADCON0                            0000001F
ADCON1                            0000009F
ADCS0                             00000006
ADCS1                             00000007
ADDEN                             00000003
ADFM                              00000007
ADIE                              00000006
ADIF                              00000006
ADON                              00000000
ADRESH                            0000001E
ADRESL                            0000009E
BANK0                             
BANK00                            
BANK1                             
BCLIE                             00000003
BCLIF                             00000003
BF                                00000000
BRGH                              00000002
C                                 00000000
CCP1CON                           00000017
CCP1IE                            00000002
CCP1IF                            00000002
CCP1M0                            00000000
CCP1M1                            00000001
CCP1M2                            00000002
CCP1M3                            00000003
CCP1X                             00000005
CCP1Y                             00000004
CCP2CON                           0000001D
CCP2IE                            00000000
CCP2IF                            00000000
CCP2M0                            00000000
CCP2M1                            00000001
CCP2M2                            00000002
CCP2M3                            00000003
CCP2X                             00000005
CCP2Y                             00000004
CCPR1                             00000015
CCPR1H                            00000016
CCPR1L                            00000015
CCPR2                             0000001B
CCPR2H                            0000001C
CCPR2L                            0000001B
CHS0                              00000003
CHS1                              00000004
CHS2                              00000005
CKE                               00000006
CKP                               00000004
CL_ERR_BIT                        2
CL_FN_BIT                         1
MPASM  5.48                           LCD.ASM   4-9-2013  10:29:00         PAGE  8


SYMBOL TABLE
  LABEL                             VALUE 

CL_POS_BIT                        0
COLS                              00000005
CREN                              00000004
CSRC                              00000007
ClkLCD                            
D                                 00000005
DATA_ADDRESS                      00000005
DC                                00000001
DCDOWNDELAY                       0000001E
DEBUG                             
D_A                               00000005
D_NOT_A                           00000005
EEADR                             0000010D
EEADRH                            0000010F
EECON1                            0000018C
EECON2                            0000018D
EEDATA                            0000010C
EEDATH                            0000010E
EEIE                              00000004
EEIF                              00000004
EEPGD                             00000007
F                                 00000001
FALSE                             0x00
FB_ROW4                           PORTC, 7
FCALL                             
FERR                              00000002
FSNUM                             00000002
FSR                               00000004
GCEN                              00000007
GIE                               00000007
GO                                00000002
GO_DONE                           00000002
GO_NOT_DONE                       00000002
I2C_DATA                          00000005
I2C_READ                          00000002
I2C_START                         00000003
I2C_STOP                          00000004
IBF                               00000007
IBOV                              00000005
INDF                              00000000
INITVAL_ADCON0                    B'10000001'
INITVAL_ADCON1                    B'00000100'
INITVAL_OPTREG                    B'10000101'
INITVAL_TRISA                     B'00101111'
INITVAL_TRISB                     B'11110010'
INITVAL_TRISC                     B'11100000'
INITVAL_TRISD                     B'00000000'
INITVAL_TRISE                     B'00000000'
INTCON                            0000000B
INTE                              00000004
INTEDG                            00000006
INTF                              00000001
IRP                               00000007
MPASM  5.48                           LCD.ASM   4-9-2013  10:29:00         PAGE  9


SYMBOL TABLE
  LABEL                             VALUE 

KEYPAD_DA                         PORTB, 1
LCD_E                             PORTD, 3
LCD_PORT                          PORTD
LCD_RS                            PORTD, 2
LCD_clear                         0000002D
LCD_init                          00000000
LCD_line2                         00000037
LCD_out                           0000003C
LCD_wt                            00000041
LIGHTAVGX                         00000004
LOGLENGTH                         00000010
MAXCLINROW                        00000003
MAXLINE                           00000006
MAXLOG                            0000000C
MAXLOGBANK                        00000006
MAXPOS                            00000014
MOVFF                             
MOVLF                             
MovMSB                            
NOT_A                             00000005
NOT_ADDRESS                       00000005
NOT_BO                            00000000
NOT_BOR                           00000000
NOT_DONE                          00000002
NOT_PD                            00000003
NOT_POR                           00000001
NOT_RBPU                          00000007
NOT_RC8                           00000006
NOT_T1SYNC                        00000002
NOT_TO                            00000004
NOT_TX8                           00000006
NOT_W                             00000002
NOT_WRITE                         00000002
NULL                              0x00
OBF                               00000006
OERR                              00000001
OPTION_REG                        00000081
P                                 00000004
PCFG0                             00000000
PCFG1                             00000001
PCFG2                             00000002
PCFG3                             00000003
PCL                               00000002
PCLATH                            0000000A
PCON                              0000008E
PEIE                              00000006
PEN                               00000002
PHASE_FINISH                      6
PHASE_HDINIT                      0
PHASE_NOREPORT                    3
PHASE_REALTIME                    2
PHASE_REPORT                      4
PHASE_RTCINIT                     1
MPASM  5.48                           LCD.ASM   4-9-2013  10:29:00         PAGE 10


SYMBOL TABLE
  LABEL                             VALUE 

PHASE_RUN                         5
PIE1                              0000008C
PIE2                              0000008D
PIR1                              0000000C
PIR2                              0000000D
PMOTOR                            PORTC, 1
PORTA                             00000005
PORTB                             00000006
PORTC                             00000007
PORTD                             00000008
PORTE                             00000009
PR2                               00000092
PS0                               00000000
PS1                               00000001
PS2                               00000002
PSA                               00000003
PSPIE                             00000007
PSPIF                             00000007
PSPMODE                           00000004
R                                 00000002
RA0                               00000000
RA1                               00000001
RA2                               00000002
RA3                               00000003
RA4                               00000004
RA5                               00000005
RB0                               00000000
RB1                               00000001
RB2                               00000002
RB3                               00000003
RB4                               00000004
RB5                               00000005
RB6                               00000006
RB7                               00000007
RBIE                              00000003
RBIF                              00000000
RC0                               00000000
RC1                               00000001
RC2                               00000002
RC3                               00000003
RC4                               00000004
RC5                               00000005
RC6                               00000006
RC7                               00000007
RC8_9                             00000006
RC9                               00000006
RCD8                              00000000
RCEN                              00000003
RCIE                              00000005
RCIF                              00000005
RCREG                             0000001A
RCSTA                             00000018
RD                                00000000
MPASM  5.48                           LCD.ASM   4-9-2013  10:29:00         PAGE 11


SYMBOL TABLE
  LABEL                             VALUE 

RD0                               00000000
RD1                               00000001
RD2                               00000002
RD3                               00000003
RD4                               00000004
RD5                               00000005
RD6                               00000006
RD7                               00000007
RE0                               00000000
RE1                               00000001
RE2                               00000002
READ_WRITE                        00000002
ROWS                              00000004
RP0                               00000005
RP1                               00000006
RSEN                              00000001
RX9                               00000006
RX9D                              00000000
R_NOT_W                           00000002
R_W                               00000002
S                                 00000003
SEN                               00000000
SMOTOR_EN                         PORTE, 2
SMOTOR_S0                         PORTD, 0
SMOTOR_S1                         PORTD, 1
SMOTOR_S2                         PORTE, 0
SMOTOR_S3                         PORTE, 1
SMOTOR_SPD_F                      00000006
SMOTOR_STEPS                      0000001C
SMP                               00000007
SPBRG                             00000099
SPEN                              00000007
SREN                              00000005
SSPADD                            00000093
SSPBUF                            00000013
SSPCON                            00000014
SSPCON2                           00000091
SSPEN                             00000005
SSPIE                             00000003
SSPIF                             00000003
SSPM0                             00000000
SSPM1                             00000001
SSPM2                             00000002
SSPM3                             00000003
SSPOV                             00000006
SSPSTAT                           00000094
STATUS                            00000003
STOP_BUT                          0x0B
SWMOTOR                           PORTC, 0
SYNC                              00000004
T0CS                              00000005
T0IE                              00000005
T0IF                              00000002
MPASM  5.48                           LCD.ASM   4-9-2013  10:29:00         PAGE 12


SYMBOL TABLE
  LABEL                             VALUE 

T0SE                              00000004
T1CKPS0                           00000004
T1CKPS1                           00000005
T1CON                             00000010
T1INSYNC                          00000002
T1OSCEN                           00000003
T1SYNC                            00000002
T2CKPS0                           00000000
T2CKPS1                           00000001
T2CON                             00000012
THD_BG                            00000005
THD_CL3LED                        00000050
THD_IRLED                         0000001C
TMR0                              00000001
TMR0IE                            00000005
TMR0IF                            00000002
TMR1                              0000000E
TMR1CS                            00000001
TMR1H                             0000000F
TMR1IE                            00000000
TMR1IF                            00000000
TMR1L                             0000000E
TMR1ON                            00000000
TMR2                              00000011
TMR2IE                            00000001
TMR2IF                            00000001
TMR2ON                            00000002
TOUTPS0                           00000003
TOUTPS1                           00000004
TOUTPS2                           00000005
TOUTPS3                           00000006
TRISA                             00000085
TRISA0                            00000000
TRISA1                            00000001
TRISA2                            00000002
TRISA3                            00000003
TRISA4                            00000004
TRISA5                            00000005
TRISB                             00000086
TRISB0                            00000000
TRISB1                            00000001
TRISB2                            00000002
TRISB3                            00000003
TRISB4                            00000004
TRISB5                            00000005
TRISB6                            00000006
TRISB7                            00000007
TRISC                             00000087
TRISC0                            00000000
TRISC1                            00000001
TRISC2                            00000002
TRISC3                            00000003
TRISC4                            00000004
MPASM  5.48                           LCD.ASM   4-9-2013  10:29:00         PAGE 13


SYMBOL TABLE
  LABEL                             VALUE 

TRISC5                            00000005
TRISC6                            00000006
TRISC7                            00000007
TRISD                             00000088
TRISD0                            00000000
TRISD1                            00000001
TRISD2                            00000002
TRISD3                            00000003
TRISD4                            00000004
TRISD5                            00000005
TRISD6                            00000006
TRISD7                            00000007
TRISE                             00000089
TRISE0                            00000000
TRISE1                            00000001
TRISE2                            00000002
TRMT                              00000001
TRUE                              0xFF
TX8_9                             00000006
TX9                               00000006
TX9D                              00000000
TXD8                              00000000
TXEN                              00000005
TXIE                              00000004
TXIF                              00000004
TXREG                             00000019
TXSTA                             00000098
UA                                00000001
VMOTOR_C0                         PORTC, 2
VMOTOR_C1                         PORTC, 3
W                                 00000000
WCOL                              00000007
WR                                00000001
WREN                              00000002
WRERR                             00000003
Z                                 00000002
_.code_0034                       00000034
_BODEN_OFF                        00003FBF
_BODEN_ON                         00003FFF
_BOREN_OFF                        00003FBF
_BOREN_ON                         00003FFF
_CONFIG                           00002007
_CPD_OFF                          00003FFF
_CPD_ON                           00003EFF
_CP_ALL                           00000FCF
_CP_HALF                          00001FDF
_CP_OFF                           00003FFF
_CP_UPPER_256                     00002FEF
_DEBUG_OFF                        00003FFF
_DEBUG_ON                         000037FF
_DEVID1                           00002006
_FOSC_EXTRC                       00003FFF
_FOSC_HS                          00003FFE
MPASM  5.48                           LCD.ASM   4-9-2013  10:29:00         PAGE 14


SYMBOL TABLE
  LABEL                             VALUE 

_FOSC_LP                          00003FFC
_FOSC_XT                          00003FFD
_HS_OSC                           00003FFE
_IDLOC0                           00002000
_IDLOC1                           00002001
_IDLOC2                           00002002
_IDLOC3                           00002003
_LP_OSC                           00003FFC
_LVP_OFF                          00003F7F
_LVP_ON                           00003FFF
_PWRTE_OFF                        00003FFF
_PWRTE_ON                         00003FF7
_RC_OSC                           00003FFF
_WDTE_OFF                         00003FFB
_WDTE_ON                          00003FFF
_WDT_OFF                          00003FFB
_WDT_ON                           00003FFF
_WRT_ENABLE_OFF                   00003DFF
_WRT_ENABLE_ON                    00003FFF
_WRT_OFF                          00003DFF
_WRT_ON                           00003FFF
_XT_OSC                           00003FFD
__16F877                          00000001
delay1sl                          00000000
delay50us                         00000000
delay5ms                          00000000
delayX5msm                        00000000
lcd_tmp                           00000000

Errors   :     0
Warnings :     0 reported,     0 suppressed
Messages :     0 reported,     0 suppressed

